target datalayout = "e-m:e-p270:32:32-p271:32:32-p272:64:64-i64:64-i128:128-f80:128-n8:16:32:64-S128"
target triple = "x86_64-pc-linux-gnu"

%union.pthread_mutex_t = type { %struct.__pthread_mutex_s }
%struct.__pthread_mutex_s = type { i32, i32, i32, i32, i32, i16, i16, %struct.__pthread_internal_list }
%struct.__pthread_internal_list = type { ptr, ptr }

@lock_mutex = internal global %union.pthread_mutex_t zeroinitializer, align 8
@.str = private unnamed_addr constant [29 x i8] c"%s: pthread_mutex_lock(): %m\00", align 1
@ping_count = internal global i32 0, align 4
@ping_start = internal global i64 0, align 8
@.str.2 = private unnamed_addr constant [31 x i8] c"%s: pthread_mutex_unlock(): %m\00", align 1
@__func__.ping_end = private unnamed_addr constant [9 x i8] c"ping_end\00", align 1
@.str.3 = private unnamed_addr constant [19 x i8] c"%s: ping_count < 0\00", align 1

; Function Attrs: nounwind uwtable
define dso_local void @ping_end() #0 {
  %1 = alloca i32, align 4
  %2 = alloca i32, align 4
  br label %3

3:                                                ; preds = %0
  call void @llvm.lifetime.start.p0(i64 4, ptr %1) #6
  %4 = call i32 @pthread_mutex_lock(ptr noundef @lock_mutex) #6
  store i32 %4, ptr %1, align 4
  %5 = load i32, ptr %1, align 4
  %6 = icmp ne i32 %5, 0
  br i1 %6, label %7, label %10

7:                                                ; preds = %3
  %8 = load i32, ptr %1, align 4
  %9 = call ptr @__errno_location() #7
  store i32 %8, ptr %9, align 4
  call void (ptr, ...) @fatal_abort(ptr noundef @.str, ptr noundef @__func__.ping_end) #8
  unreachable

10:                                               ; preds = %3
  call void @llvm.lifetime.end.p0(i64 4, ptr %1) #6
  br label %11

11:                                               ; preds = %10
  %12 = load i32, ptr @ping_count, align 4
  %13 = icmp sgt i32 %12, 0
  br i1 %13, label %14, label %17

14:                                               ; preds = %11
  %15 = load i32, ptr @ping_count, align 4
  %16 = add nsw i32 %15, -1
  store i32 %16, ptr @ping_count, align 4
  br label %19

17:                                               ; preds = %11
  %18 = call i32 (ptr, ...) @error(ptr noundef @.str.3, ptr noundef @__func__.ping_end)
  br label %19

19:                                               ; preds = %17, %14
  %20 = load i32, ptr @ping_count, align 4
  %21 = icmp eq i32 %20, 0
  br i1 %21, label %22, label %23

22:                                               ; preds = %19
  store i64 0, ptr @ping_start, align 8
  br label %23

23:                                               ; preds = %22, %19
  br label %24

24:                                               ; preds = %23
  call void @llvm.lifetime.start.p0(i64 4, ptr %2) #6
  %25 = call i32 @pthread_mutex_unlock(ptr noundef @lock_mutex) #6
  store i32 %25, ptr %2, align 4
  %26 = load i32, ptr %2, align 4
  %27 = icmp ne i32 %26, 0
  br i1 %27, label %28, label %31

28:                                               ; preds = %24
  %29 = load i32, ptr %2, align 4
  %30 = call ptr @__errno_location() #7
  store i32 %29, ptr %30, align 4
  call void (ptr, ...) @fatal_abort(ptr noundef @.str.2, ptr noundef @__func__.ping_end) #8
  unreachable

31:                                               ; preds = %24
  call void @llvm.lifetime.end.p0(i64 4, ptr %2) #6
  br label %32

32:                                               ; preds = %31
  ret void
}