; Function Attrs: nounwind uwtable
define dso_local void @ping_end() local_unnamed_addr #0 {
  %1 = tail call i32 @pthread_mutex_lock(ptr noundef nonnull @lock_mutex) #7
  %.not = icmp eq i32 %1, 0
  br i1 %.not, label %4, label %2

2:                                                ; preds = %0
  %3 = tail call ptr @__errno_location() #8
  store i32 %1, ptr %3, align 4
  tail call void (ptr, ...) @fatal_abort(ptr noundef nonnull @.str, ptr noundef nonnull @__func__.ping_end) #9
  unreachable

4:                                                ; preds = %0
  %5 = load i32, ptr @ping_count, align 4
  %6 = icmp sgt i32 %5, 0
  br i1 %6, label %7, label %9

7:                                                ; preds = %4
  %8 = add nsw i32 %5, -1
  store i32 %8, ptr @ping_count, align 4
  br label %11

9:                                                ; preds = %4
  %10 = tail call i32 (ptr, ...) @error(ptr noundef nonnull @.str.3, ptr noundef nonnull @__func__.ping_end) #7
  %.pr = load i32, ptr @ping_count, align 4
  br label %11

11:                                               ; preds = %9, %7
  %12 = phi i32 [ %.pr, %9 ], [ %8, %7 ]
  %13 = icmp eq i32 %12, 0
  br i1 %13, label %14, label %15

14:                                               ; preds = %11
  store i64 0, ptr @ping_start, align 8
  br label %15

15:                                               ; preds = %11, %14
  %16 = tail call i32 @pthread_mutex_unlock(ptr noundef nonnull @lock_mutex) #7
  %.not6 = icmp eq i32 %16, 0
  br i1 %.not6, label %19, label %17

17:                                               ; preds = %15
  %18 = tail call ptr @__errno_location() #8
  store i32 %16, ptr %18, align 4
  tail call void (ptr, ...) @fatal_abort(ptr noundef nonnull @.str.2, ptr noundef nonnull @__func__.ping_end) #9
  unreachable

19:                                               ; preds = %15
  ret void
}